target datalayout = "e-m:e-p270:32:32-p271:32:32-p272:64:64-i64:64-i128:128-f80:128-n8:16:32:64-S128"
target triple = "x86_64-pc-linux-gnu"

%struct.HASHCTL = type { i64, i64, i64, i64, i64, i64, ptr, ptr, ptr, ptr, ptr, ptr }
%union.ListCell = type { ptr }
%struct.ForEachState = type { ptr, i32 }
%struct.List = type { i32, i32, i32, ptr, [0 x %union.ListCell] }
%struct.SeenRelsEntry = type { i32, i32 }

@CurrentMemoryContext = external global ptr, align 8
@.str.2 = private unnamed_addr constant [36 x i8] c"find_all_inheritors temporary table\00", align 1

; Function Attrs: inlinehint nounwind uwtable
define internal i32 @list_length(ptr noundef %0) #3 {
  %2 = alloca ptr, align 8
  store ptr %0, ptr %2, align 8
  %3 = load ptr, ptr %2, align 8
  %4 = icmp ne ptr %3, null
  br i1 %4, label %5, label %9

5:                                                ; preds = %1
  %6 = load ptr, ptr %2, align 8
  %7 = getelementptr inbounds nuw %struct.List, ptr %6, i32 0, i32 1
  %8 = load i32, ptr %7, align 4
  br label %10

9:                                                ; preds = %1
  br label %10

10:                                               ; preds = %9, %5
  %11 = phi i32 [ %8, %5 ], [ 0, %9 ]
  ret i32 %11
}

; Function Attrs: inlinehint nounwind uwtable
define internal ptr @list_nth_cell(ptr noundef %0, i32 noundef %1) #3 {
  %3 = alloca ptr, align 8
  %4 = alloca i32, align 4
  store ptr %0, ptr %3, align 8
  store i32 %1, ptr %4, align 4
  %5 = load ptr, ptr %3, align 8
  %6 = getelementptr inbounds nuw %struct.List, ptr %5, i32 0, i32 3
  %7 = load ptr, ptr %6, align 8
  %8 = load i32, ptr %4, align 4
  %9 = sext i32 %8 to i64
  %10 = getelementptr inbounds %union.ListCell, ptr %7, i64 %9
  ret ptr %10
}

; Function Attrs: nounwind uwtable
define dso_local ptr @find_inheritance_children(i32 noundef %0, i32 noundef %1) #0 {
  %3 = alloca i32, align 4
  %4 = alloca i32, align 4
  store i32 %0, ptr %3, align 4
  store i32 %1, ptr %4, align 4
  %5 = load i32, ptr %3, align 4
  %6 = load i32, ptr %4, align 4
  %7 = call ptr @find_inheritance_children_extended(i32 noundef %5, i1 noundef zeroext true, i32 noundef %6, ptr noundef null, ptr noundef null)
  ret ptr %7
}

; Function Attrs: nounwind uwtable
define dso_local ptr @find_all_inheritors(i32 noundef %0, i32 noundef %1, ptr noundef %2) #0 {
  %4 = alloca i32, align 4
  %5 = alloca i32, align 4
  %6 = alloca ptr, align 8
  %7 = alloca ptr, align 8
  %8 = alloca %struct.HASHCTL, align 8
  %9 = alloca ptr, align 8
  %10 = alloca ptr, align 8
  %11 = alloca ptr, align 8
  %12 = alloca %union.ListCell, align 8
  %13 = alloca %union.ListCell, align 8
  %14 = alloca %struct.ForEachState, align 8
  %15 = alloca i32, align 4
  %16 = alloca i32, align 4
  %17 = alloca ptr, align 8
  %18 = alloca ptr, align 8
  %19 = alloca %struct.ForEachState, align 8
  %20 = alloca i32, align 4
  %21 = alloca i8, align 1
  %22 = alloca ptr, align 8
  %23 = alloca ptr, align 8
  store i32 %0, ptr %4, align 4
  store i32 %1, ptr %5, align 4
  store ptr %2, ptr %6, align 8
  call void @llvm.lifetime.start.p0(i64 8, ptr %7) #6
  call void @llvm.lifetime.start.p0(i64 96, ptr %8) #6
  call void @llvm.lifetime.start.p0(i64 8, ptr %9) #6
  call void @llvm.lifetime.start.p0(i64 8, ptr %10) #6
  call void @llvm.lifetime.start.p0(i64 8, ptr %11) #6
  %24 = getelementptr inbounds nuw %struct.HASHCTL, ptr %8, i32 0, i32 4
  store i64 4, ptr %24, align 8
  %25 = getelementptr inbounds nuw %struct.HASHCTL, ptr %8, i32 0, i32 5
  store i64 8, ptr %25, align 8
  %26 = load ptr, ptr @CurrentMemoryContext, align 8
  %27 = getelementptr inbounds nuw %struct.HASHCTL, ptr %8, i32 0, i32 10
  store ptr %26, ptr %27, align 8
  %28 = call ptr @hash_create(ptr noundef @.str.2, i64 noundef 32, ptr noundef %8, i32 noundef 1064)
  store ptr %28, ptr %7, align 8
  %29 = load i32, ptr %4, align 4
  store i32 %29, ptr %12, align 8
  %30 = getelementptr i8, ptr %12, i64 4
  call void @llvm.memset.p0.i64(ptr align 4 %30, i8 0, i64 4, i1 false)
  %31 = getelementptr inbounds nuw %union.ListCell, ptr %12, i32 0, i32 0
  %32 = load ptr, ptr %31, align 8
  %33 = call ptr @list_make1_impl(i32 noundef 471, ptr %32)
  store ptr %33, ptr %9, align 8
  store i32 0, ptr %13, align 8
  %34 = getelementptr i8, ptr %13, i64 4
  call void @llvm.memset.p0.i64(ptr align 4 %34, i8 0, i64 4, i1 false)
  %35 = getelementptr inbounds nuw %union.ListCell, ptr %13, i32 0, i32 0
  %36 = load ptr, ptr %35, align 8
  %37 = call ptr @list_make1_impl(i32 noundef 470, ptr %36)
  store ptr %37, ptr %10, align 8
  call void @llvm.lifetime.start.p0(i64 16, ptr %14) #6
  %38 = getelementptr inbounds nuw %struct.ForEachState, ptr %14, i32 0, i32 0
  %39 = load ptr, ptr %9, align 8
  store ptr %39, ptr %38, align 8
  %40 = getelementptr inbounds nuw %struct.ForEachState, ptr %14, i32 0, i32 1
  store i32 0, ptr %40, align 8
  %41 = getelementptr i8, ptr %14, i64 12
  call void @llvm.memset.p0.i64(ptr align 4 %41, i8 0, i64 4, i1 false)
  br label %42

42:                                               ; preds = %136, %3
  %43 = getelementptr inbounds nuw %struct.ForEachState, ptr %14, i32 0, i32 0
  %44 = load ptr, ptr %43, align 8
  %45 = icmp ne ptr %44, null
  br i1 %45, label %46, label %63

46:                                               ; preds = %42
  %47 = getelementptr inbounds nuw %struct.ForEachState, ptr %14, i32 0, i32 1
  %48 = load i32, ptr %47, align 8
  %49 = getelementptr inbounds nuw %struct.ForEachState, ptr %14, i32 0, i32 0
  %50 = load ptr, ptr %49, align 8
  %51 = getelementptr inbounds nuw %struct.List, ptr %50, i32 0, i32 1
  %52 = load i32, ptr %51, align 4
  %53 = icmp slt i32 %48, %52
  br i1 %53, label %54, label %63

54:                                               ; preds = %46
  %55 = getelementptr inbounds nuw %struct.ForEachState, ptr %14, i32 0, i32 0
  %56 = load ptr, ptr %55, align 8
  %57 = getelementptr inbounds nuw %struct.List, ptr %56, i32 0, i32 3
  %58 = load ptr, ptr %57, align 8
  %59 = getelementptr inbounds nuw %struct.ForEachState, ptr %14, i32 0, i32 1
  %60 = load i32, ptr %59, align 8
  %61 = sext i32 %60 to i64
  %62 = getelementptr inbounds %union.ListCell, ptr %58, i64 %61
  store ptr %62, ptr %11, align 8
  br label %64

63:                                               ; preds = %46, %42
  store ptr null, ptr %11, align 8
  br label %64

64:                                               ; preds = %63, %54
  %65 = phi i32 [ 1, %54 ], [ 0, %63 ]
  %66 = icmp ne i32 %65, 0
  br i1 %66, label %68, label %67

67:                                               ; preds = %64
  store i32 2, ptr %15, align 4
  call void @llvm.lifetime.end.p0(i64 16, ptr %14) #6
  br label %140

68:                                               ; preds = %64
  call void @llvm.lifetime.start.p0(i64 4, ptr %16) #6
  %69 = load ptr, ptr %11, align 8
  %70 = load i32, ptr %69, align 8
  store i32 %70, ptr %16, align 4
  call void @llvm.lifetime.start.p0(i64 8, ptr %17) #6
  call void @llvm.lifetime.start.p0(i64 8, ptr %18) #6
  %71 = load i32, ptr %16, align 4
  %72 = load i32, ptr %5, align 4
  %73 = call ptr @find_inheritance_children(i32 noundef %71, i32 noundef %72)
  store ptr %73, ptr %17, align 8
  call void @llvm.lifetime.start.p0(i64 16, ptr %19) #6
  %74 = getelementptr inbounds nuw %struct.ForEachState, ptr %19, i32 0, i32 0
  %75 = load ptr, ptr %17, align 8
  store ptr %75, ptr %74, align 8
  %76 = getelementptr inbounds nuw %struct.ForEachState, ptr %19, i32 0, i32 1
  store i32 0, ptr %76, align 8
  %77 = getelementptr i8, ptr %19, i64 12
  call void @llvm.memset.p0.i64(ptr align 4 %77, i8 0, i64 4, i1 false)
  br label %78

78:                                               ; preds = %131, %68
  %79 = getelementptr inbounds nuw %struct.ForEachState, ptr %19, i32 0, i32 0
  %80 = load ptr, ptr %79, align 8
  %81 = icmp ne ptr %80, null
  br i1 %81, label %82, label %99

82:                                               ; preds = %78
  %83 = getelementptr inbounds nuw %struct.ForEachState, ptr %19, i32 0, i32 1
  %84 = load i32, ptr %83, align 8
  %85 = getelementptr inbounds nuw %struct.ForEachState, ptr %19, i32 0, i32 0
  %86 = load ptr, ptr %85, align 8
  %87 = getelementptr inbounds nuw %struct.List, ptr %86, i32 0, i32 1
  %88 = load i32, ptr %87, align 4
  %89 = icmp slt i32 %84, %88
  br i1 %89, label %90, label %99

90:                                               ; preds = %82
  %91 = getelementptr inbounds nuw %struct.ForEachState, ptr %19, i32 0, i32 0
  %92 = load ptr, ptr %91, align 8
  %93 = getelementptr inbounds nuw %struct.List, ptr %92, i32 0, i32 3
  %94 = load ptr, ptr %93, align 8
  %95 = getelementptr inbounds nuw %struct.ForEachState, ptr %19, i32 0, i32 1
  %96 = load i32, ptr %95, align 8
  %97 = sext i32 %96 to i64
  %98 = getelementptr inbounds %union.ListCell, ptr %94, i64 %97
  store ptr %98, ptr %18, align 8
  br label %100

99:                                               ; preds = %82, %78
  store ptr null, ptr %18, align 8
  br label %100

100:                                              ; preds = %99, %90
  %101 = phi i32 [ 1, %90 ], [ 0, %99 ]
  %102 = icmp ne i32 %101, 0
  br i1 %102, label %104, label %103

103:                                              ; preds = %100
  store i32 5, ptr %15, align 4
  call void @llvm.lifetime.end.p0(i64 16, ptr %19) #6
  br label %135

104:                                              ; preds = %100
  call void @llvm.lifetime.start.p0(i64 4, ptr %20) #6
  %105 = load ptr, ptr %18, align 8
  %106 = load i32, ptr %105, align 8
  store i32 %106, ptr %20, align 4
  call void @llvm.lifetime.start.p0(i64 1, ptr %21) #6
  call void @llvm.lifetime.start.p0(i64 8, ptr %22) #6
  %107 = load ptr, ptr %7, align 8
  %108 = call ptr @hash_search(ptr noundef %107, ptr noundef %20, i32 noundef 1, ptr noundef %21)
  store ptr %108, ptr %22, align 8
  %109 = load i8, ptr %21, align 1, !range !4, !noundef !5
  %110 = trunc i8 %109 to i1
  br i1 %110, label %111, label %120

111:                                              ; preds = %104
  call void @llvm.lifetime.start.p0(i64 8, ptr %23) #6
  %112 = load ptr, ptr %10, align 8
  %113 = load ptr, ptr %22, align 8
  %114 = getelementptr inbounds nuw %struct.SeenRelsEntry, ptr %113, i32 0, i32 1
  %115 = load i32, ptr %114, align 4
  %116 = call ptr @list_nth_cell(ptr noundef %112, i32 noundef %115)
  store ptr %116, ptr %23, align 8
  %117 = load ptr, ptr %23, align 8
  %118 = load i32, ptr %117, align 8
  %119 = add i32 %118, 1
  store i32 %119, ptr %117, align 8
  call void @llvm.lifetime.end.p0(i64 8, ptr %23) #6
  br label %130

120:                                              ; preds = %104
  %121 = load ptr, ptr %9, align 8
  %122 = call i32 @list_length(ptr noundef %121)
  %123 = load ptr, ptr %22, align 8
  %124 = getelementptr inbounds nuw %struct.SeenRelsEntry, ptr %123, i32 0, i32 1
  store i32 %122, ptr %124, align 4
  %125 = load ptr, ptr %9, align 8
  %126 = load i32, ptr %20, align 4
  %127 = call ptr @lappend_oid(ptr noundef %125, i32 noundef %126)
  store ptr %127, ptr %9, align 8
  %128 = load ptr, ptr %10, align 8
  %129 = call ptr @lappend_int(ptr noundef %128, i32 noundef 1)
  store ptr %129, ptr %10, align 8
  br label %130

130:                                              ; preds = %120, %111
  call void @llvm.lifetime.end.p0(i64 8, ptr %22) #6
  call void @llvm.lifetime.end.p0(i64 1, ptr %21) #6
  call void @llvm.lifetime.end.p0(i64 4, ptr %20) #6
  br label %131

131:                                              ; preds = %130
  %132 = getelementptr inbounds nuw %struct.ForEachState, ptr %19, i32 0, i32 1
  %133 = load i32, ptr %132, align 8
  %134 = add i32 %133, 1
  store i32 %134, ptr %132, align 8
  br label %78, !llvm.loop !9

135:                                              ; preds = %103
  call void @llvm.lifetime.end.p0(i64 8, ptr %18) #6
  call void @llvm.lifetime.end.p0(i64 8, ptr %17) #6
  call void @llvm.lifetime.end.p0(i64 4, ptr %16) #6
  br label %136

136:                                              ; preds = %135
  %137 = getelementptr inbounds nuw %struct.ForEachState, ptr %14, i32 0, i32 1
  %138 = load i32, ptr %137, align 8
  %139 = add i32 %138, 1
  store i32 %139, ptr %137, align 8
  br label %42, !llvm.loop !10

140:                                              ; preds = %67
  %141 = load ptr, ptr %6, align 8
  %142 = icmp ne ptr %141, null
  br i1 %142, label %143, label %146

143:                                              ; preds = %140
  %144 = load ptr, ptr %10, align 8
  %145 = load ptr, ptr %6, align 8
  store ptr %144, ptr %145, align 8
  br label %148

146:                                              ; preds = %140
  %147 = load ptr, ptr %10, align 8
  call void @list_free(ptr noundef %147)
  br label %148

148:                                              ; preds = %146, %143
  %149 = load ptr, ptr %7, align 8
  call void @hash_destroy(ptr noundef %149)
  %150 = load ptr, ptr %9, align 8
  store i32 1, ptr %15, align 4
  call void @llvm.lifetime.end.p0(i64 8, ptr %11) #6
  call void @llvm.lifetime.end.p0(i64 8, ptr %10) #6
  call void @llvm.lifetime.end.p0(i64 8, ptr %9) #6
  call void @llvm.lifetime.end.p0(i64 96, ptr %8) #6
  call void @llvm.lifetime.end.p0(i64 8, ptr %7) #6
  ret ptr %150
}