; Function Attrs: nounwind uwtable
define dso_local ptr @find_all_inheritors(i32 noundef %0, i32 noundef %1, ptr noundef writeonly captures(address_is_null) %2) local_unnamed_addr #0 {
  %4 = alloca %struct.HASHCTL, align 8
  %5 = alloca i32, align 4
  %6 = alloca i8, align 1
  call void @llvm.lifetime.start.p0(i64 96, ptr nonnull %4) #5
  %7 = getelementptr inbounds nuw i8, ptr %4, i64 32
  store i64 4, ptr %7, align 8
  %8 = getelementptr inbounds nuw i8, ptr %4, i64 40
  store i64 8, ptr %8, align 8
  %9 = load ptr, ptr @CurrentMemoryContext, align 8
  %10 = getelementptr inbounds nuw i8, ptr %4, i64 80
  store ptr %9, ptr %10, align 8
  %11 = call ptr @hash_create(ptr noundef nonnull @.str.2, i64 noundef 32, ptr noundef nonnull %4, i32 noundef 1064) #5
  %.sroa.017.0.insert.ext = zext i32 %0 to i64
  %12 = inttoptr i64 %.sroa.017.0.insert.ext to ptr
  %13 = call ptr @list_make1_impl(i32 noundef 471, ptr %12) #5
  %14 = call ptr @list_make1_impl(i32 noundef 470, ptr null) #5
  %15 = getelementptr inbounds nuw i8, ptr %13, i64 4
  %.not = icmp eq ptr %13, null
  br i1 %.not, label %._crit_edge72, label %.lr.ph71

.lr.ph71:                                         ; preds = %3
  %16 = getelementptr inbounds nuw i8, ptr %13, i64 16
  %17 = load i32, ptr %15, align 4
  %18 = icmp sgt i32 %17, 0
  br i1 %18, label %.lr.ph85, label %._crit_edge72

._crit_edge72:                                    ; preds = %._crit_edge, %.lr.ph71, %3
  %.033.lcssa = phi ptr [ %14, %3 ], [ %14, %.lr.ph71 ], [ %.134.lcssa, %._crit_edge ]
  %.0.lcssa = phi ptr [ null, %3 ], [ %13, %.lr.ph71 ], [ %.1.lcssa, %._crit_edge ]
  %.not42 = icmp eq ptr %2, null
  br i1 %.not42, label %58, label %57

.lr.ph85:                                         ; preds = %.lr.ph71, %._crit_edge
  %.0336884 = phi ptr [ %.134.lcssa, %._crit_edge ], [ %14, %.lr.ph71 ]
  %.06983 = phi ptr [ %.1.lcssa, %._crit_edge ], [ %13, %.lr.ph71 ]
  %indvars.iv7982 = phi i64 [ %indvars.iv.next80, %._crit_edge ], [ 0, %.lr.ph71 ]
  %19 = load ptr, ptr %16, align 8
  %20 = getelementptr inbounds nuw %union.ListCell, ptr %19, i64 %indvars.iv7982
  %21 = load i32, ptr %20, align 8
  %22 = call ptr @find_inheritance_children_extended(i32 noundef %21, i1 noundef zeroext true, i32 noundef %1, ptr noundef null, ptr noundef null)
  %23 = getelementptr inbounds nuw i8, ptr %22, i64 4
  %.not43 = icmp eq ptr %22, null
  br i1 %.not43, label %._crit_edge, label %.lr.ph

.lr.ph:                                           ; preds = %.lr.ph85
  %24 = getelementptr inbounds nuw i8, ptr %22, i64 16
  %25 = load i32, ptr %23, align 4
  %26 = icmp sgt i32 %25, 0
  br i1 %26, label %.lr.ph64, label %._crit_edge

._crit_edge:                                      ; preds = %53, %.lr.ph, %.lr.ph85
  %.134.lcssa = phi ptr [ %.0336884, %.lr.ph85 ], [ %.0336884, %.lr.ph ], [ %.235, %53 ]
  %.1.lcssa = phi ptr [ %.06983, %.lr.ph85 ], [ %.06983, %.lr.ph ], [ %.2, %53 ]
  %indvars.iv.next80 = add nuw nsw i64 %indvars.iv7982, 1
  %27 = load i32, ptr %15, align 4
  %28 = sext i32 %27 to i64
  %29 = icmp slt i64 %indvars.iv.next80, %28
  br i1 %29, label %.lr.ph85, label %._crit_edge72

.lr.ph64:                                         ; preds = %.lr.ph, %53
  %indvars.iv = phi i64 [ %indvars.iv.next, %53 ], [ 0, %.lr.ph ]
  %.1345262 = phi ptr [ %.235, %53 ], [ %.0336884, %.lr.ph ]
  %.15361 = phi ptr [ %.2, %53 ], [ %.06983, %.lr.ph ]
  %30 = load ptr, ptr %24, align 8
  %31 = getelementptr inbounds nuw %union.ListCell, ptr %30, i64 %indvars.iv
  call void @llvm.lifetime.start.p0(i64 4, ptr nonnull %5) #5
  %32 = load i32, ptr %31, align 8
  store i32 %32, ptr %5, align 4
  call void @llvm.lifetime.start.p0(i64 1, ptr nonnull %6) #5
  %33 = call ptr @hash_search(ptr noundef %11, ptr noundef nonnull %5, i32 noundef 1, ptr noundef nonnull %6) #5
  %34 = load i8, ptr %6, align 1, !range !4, !noundef !5
  %35 = trunc nuw i8 %34 to i1
  br i1 %35, label %36, label %44

36:                                               ; preds = %.lr.ph64
  %37 = getelementptr inbounds nuw i8, ptr %33, i64 4
  %38 = load i32, ptr %37, align 4
  %39 = getelementptr i8, ptr %.1345262, i64 16
  %.134.val = load ptr, ptr %39, align 8
  %40 = sext i32 %38 to i64
  %41 = getelementptr inbounds %union.ListCell, ptr %.134.val, i64 %40
  %42 = load i32, ptr %41, align 8
  %43 = add i32 %42, 1
  store i32 %43, ptr %41, align 8
  br label %53

44:                                               ; preds = %.lr.ph64
  %.not.i = icmp eq ptr %.15361, null
  br i1 %.not.i, label %list_length.exit, label %45

45:                                               ; preds = %44
  %46 = getelementptr inbounds nuw i8, ptr %.15361, i64 4
  %47 = load i32, ptr %46, align 4
  br label %list_length.exit

list_length.exit:                                 ; preds = %44, %45
  %48 = phi i32 [ %47, %45 ], [ 0, %44 ]
  %49 = getelementptr inbounds nuw i8, ptr %33, i64 4
  store i32 %48, ptr %49, align 4
  %50 = load i32, ptr %5, align 4
  %51 = call ptr @lappend_oid(ptr noundef %.15361, i32 noundef %50) #5
  %52 = call ptr @lappend_int(ptr noundef %.1345262, i32 noundef 1) #5
  br label %53

53:                                               ; preds = %list_length.exit, %36
  %.235 = phi ptr [ %.1345262, %36 ], [ %52, %list_length.exit ]
  %.2 = phi ptr [ %.15361, %36 ], [ %51, %list_length.exit ]
  call void @llvm.lifetime.end.p0(i64 1, ptr nonnull %6) #5
  call void @llvm.lifetime.end.p0(i64 4, ptr nonnull %5) #5
  %indvars.iv.next = add nuw nsw i64 %indvars.iv, 1
  %54 = load i32, ptr %23, align 4
  %55 = sext i32 %54 to i64
  %56 = icmp slt i64 %indvars.iv.next, %55
  br i1 %56, label %.lr.ph64, label %._crit_edge

57:                                               ; preds = %._crit_edge72
  store ptr %.033.lcssa, ptr %2, align 8
  br label %59

58:                                               ; preds = %._crit_edge72
  call void @list_free(ptr noundef %.033.lcssa) #5
  br label %59

59:                                               ; preds = %58, %57
  call void @hash_destroy(ptr noundef %11) #5
  call void @llvm.lifetime.end.p0(i64 96, ptr nonnull %4) #5
  ret ptr %.0.lcssa
}